; ModuleID = 'source-C-CXX/22/1099.c'
source_filename = "source-C-CXX/22/1099.c"
target datalayout = "e-m:e-p270:32:32-p271:32:32-p272:64:64-i64:64-f80:128-n8:16:32:64-S128"
target triple = "x86_64-pc-linux-gnu"

@.str = private unnamed_addr constant [2 x i8] c"\0A\00", align 1
@.str.1 = private unnamed_addr constant [3 x i8] c"%s\00", align 1
@.str.2 = private unnamed_addr constant [4 x i8] c" %s\00", align 1

; Function Attrs: nounwind sspstrong uwtable
define dso_local i32 @main() local_unnamed_addr #0 {
  %1 = alloca [100 x i8], align 16
  %2 = alloca [100 x [100 x i8]], align 16
  %3 = getelementptr inbounds [100 x i8], [100 x i8]* %1, i64 0, i64 0
  call void @llvm.lifetime.start.p0i8(i64 100, i8* nonnull %3) #4
  %4 = getelementptr inbounds [100 x [100 x i8]], [100 x [100 x i8]]* %2, i64 0, i64 0, i64 0
  call void @llvm.lifetime.start.p0i8(i64 10000, i8* nonnull %4) #4
  %5 = call i32 (i8*, ...) bitcast (i32 (...)* @gets to i32 (i8*, ...)*)(i8* nonnull %3) #4
  %6 = call i32 (i8*, ...) @__isoc99_scanf(i8* getelementptr inbounds ([2 x i8], [2 x i8]* @.str, i64 0, i64 0))
  br label %7

7:                                                ; preds = %0, %25
  %8 = phi i64 [ 0, %0 ], [ %26, %25 ]
  %9 = phi i32 [ 0, %0 ], [ %28, %25 ]
  %10 = phi i32 [ 0, %0 ], [ %27, %25 ]
  %11 = getelementptr inbounds [100 x i8], [100 x i8]* %1, i64 0, i64 %8
  %12 = load i8, i8* %11, align 1, !tbaa !5
  switch i8 %12, label %15 [
    i8 0, label %30
    i8 32, label %13
  ]

13:                                               ; preds = %7
  %14 = add nuw nsw i64 %8, 1
  br label %25

15:                                               ; preds = %7
  %16 = sext i32 %10 to i64
  %17 = sext i32 %9 to i64
  %18 = getelementptr inbounds [100 x [100 x i8]], [100 x [100 x i8]]* %2, i64 0, i64 %16, i64 %17
  store i8 %12, i8* %18, align 1, !tbaa !5
  %19 = add nuw nsw i64 %8, 1
  %20 = getelementptr inbounds [100 x i8], [100 x i8]* %1, i64 0, i64 %19
  %21 = load i8, i8* %20, align 1, !tbaa !5
  %22 = add nsw i32 %9, 1
  switch i8 %21, label %25 [
    i8 32, label %23
    i8 0, label %23
  ]

23:                                               ; preds = %15, %15
  %24 = add nsw i32 %10, 1
  br label %25

25:                                               ; preds = %13, %15, %23
  %26 = phi i64 [ %14, %13 ], [ %19, %15 ], [ %19, %23 ]
  %27 = phi i32 [ %10, %13 ], [ %10, %15 ], [ %24, %23 ]
  %28 = phi i32 [ %9, %13 ], [ %22, %15 ], [ 0, %23 ]
  %29 = icmp eq i64 %26, 100
  br i1 %29, label %30, label %7, !llvm.loop !8

30:                                               ; preds = %7, %25
  %31 = phi i32 [ %10, %7 ], [ %27, %25 ]
  %32 = add nsw i32 %31, -1
  %33 = sext i32 %32 to i64
  %34 = getelementptr inbounds [100 x [100 x i8]], [100 x [100 x i8]]* %2, i64 0, i64 %33, i64 0
  %35 = call i32 (i8*, ...) @printf(i8* nonnull dereferenceable(1) getelementptr inbounds ([3 x i8], [3 x i8]* @.str.1, i64 0, i64 0), i8* nonnull %34)
  %36 = icmp sgt i32 %31, 1
  br i1 %36, label %37, label %46

37:                                               ; preds = %30
  %38 = add nsw i32 %31, -2
  %39 = zext i32 %38 to i64
  br label %40

40:                                               ; preds = %37, %40
  %41 = phi i64 [ %39, %37 ], [ %45, %40 ]
  %42 = getelementptr inbounds [100 x [100 x i8]], [100 x [100 x i8]]* %2, i64 0, i64 %41, i64 0
  %43 = call i32 (i8*, ...) @printf(i8* nonnull dereferenceable(1) getelementptr inbounds ([4 x i8], [4 x i8]* @.str.2, i64 0, i64 0), i8* nonnull %42)
  %44 = icmp sgt i64 %41, 0
  %45 = add nsw i64 %41, -1
  br i1 %44, label %40, label %46, !llvm.loop !10

46:                                               ; preds = %40, %30
  call void @llvm.lifetime.end.p0i8(i64 10000, i8* nonnull %4) #4
  call void @llvm.lifetime.end.p0i8(i64 100, i8* nonnull %3) #4
  ret i32 0
}

; Function Attrs: argmemonly mustprogress nofree nosync nounwind willreturn
declare void @llvm.lifetime.start.p0i8(i64 immarg, i8* nocapture) #1

declare i32 @gets(...) local_unnamed_addr #2

; Function Attrs: nofree nounwind
declare noundef i32 @__isoc99_scanf(i8* nocapture noundef readonly, ...) local_unnamed_addr #3

; Function Attrs: nofree nounwind
declare noundef i32 @printf(i8* nocapture noundef readonly, ...) local_unnamed_addr #3

; Function Attrs: argmemonly mustprogress nofree nosync nounwind willreturn
declare void @llvm.lifetime.end.p0i8(i64 immarg, i8* nocapture) #1


!llvm.module.flags = !{!0, !1, !2, !3}
!llvm.ident = !{!4}

!0 = !{i32 1, !"wchar_size", i32 4}
!1 = !{i32 7, !"PIC Level", i32 2}
!2 = !{i32 7, !"PIE Level", i32 2}
!3 = !{i32 7, !"uwtable", i32 1}
!4 = !{!"clang version 13.0.0"}
!5 = !{!6, !6, i64 0}
!6 = !{!"omnipotent char", !7, i64 0}
!7 = !{!"Simple C/C++ TBAA"}
!8 = distinct !{!8, !9}
!9 = !{!"llvm.loop.mustprogress"}
!10 = distinct !{!10, !9}
